; Function Attrs: mustprogress uwtable
define noundef float @_ZN17double_conversion6StrtofENS_6VectorIKcEEi(ptr %0, i32 %1, i32 noundef %2) local_unnamed_addr #0 {
  %4 = alloca [780 x i8], align 16
  call void @llvm.lifetime.start.p0(i64 780, ptr nonnull %4) #6
  %5 = icmp sgt i32 %1, 0
  br i1 %5, label %.lr.ph.preheader.i.i, label %_ZN17double_conversionL16TrimLeadingZerosENS_6VectorIKcEE.exit.i

.lr.ph.preheader.i.i:                             ; preds = %3
  %wide.trip.count.i.i = zext nneg i32 %1 to i64
  br label %.lr.ph.i.i

.lr.ph.i.i:                                       ; preds = %8, %.lr.ph.preheader.i.i
  %indvars.iv.i.i = phi i64 [ 0, %.lr.ph.preheader.i.i ], [ %indvars.iv.next.i.i, %8 ]
  %6 = getelementptr inbounds nuw i8, ptr %0, i64 %indvars.iv.i.i
  %7 = load i8, ptr %6, align 1, !tbaa !7
  %.not.i.i = icmp eq i8 %7, 48
  br i1 %.not.i.i, label %8, label %9

8:                                                ; preds = %.lr.ph.i.i
  %indvars.iv.next.i.i = add nuw nsw i64 %indvars.iv.i.i, 1
  %exitcond.not.i.i = icmp eq i64 %indvars.iv.next.i.i, %wide.trip.count.i.i
  br i1 %exitcond.not.i.i, label %_ZN17double_conversionL16TrimLeadingZerosENS_6VectorIKcEE.exit.i, label %.lr.ph.i.i, !llvm.loop !24

9:                                                ; preds = %.lr.ph.i.i
  %10 = getelementptr inbounds nuw i8, ptr %0, i64 %indvars.iv.i.i
  %11 = trunc nuw nsw i64 %indvars.iv.i.i to i32
  %12 = sub nsw i32 %1, %11
  br label %_ZN17double_conversionL16TrimLeadingZerosENS_6VectorIKcEE.exit.i

_ZN17double_conversionL16TrimLeadingZerosENS_6VectorIKcEE.exit.i: ; preds = %8, %9, %3
  %.sroa.09.1.i.i = phi ptr [ %10, %9 ], [ %0, %3 ], [ %0, %8 ]
  %.sroa.3.1.i.i = phi i32 [ %12, %9 ], [ 0, %3 ], [ 0, %8 ]
  %13 = zext i32 %.sroa.3.1.i.i to i64
  br label %14

14:                                               ; preds = %18, %_ZN17double_conversionL16TrimLeadingZerosENS_6VectorIKcEE.exit.i
  %indvars.iv.i22.i = phi i64 [ %19, %18 ], [ %13, %_ZN17double_conversionL16TrimLeadingZerosENS_6VectorIKcEE.exit.i ]
  %15 = trunc nuw i64 %indvars.iv.i22.i to i32
  %16 = icmp sgt i32 %15, 0
  br i1 %16, label %18, label %_ZN17double_conversion17TrimTrailingZerosENS_6VectorIKcEE.exit.thread.i

_ZN17double_conversion17TrimTrailingZerosENS_6VectorIKcEE.exit.thread.i: ; preds = %14
  %17 = add nsw i32 %.sroa.3.1.i.i, %2
  br label %_ZN17double_conversionL10TrimAndCutENS_6VectorIKcEEiPciPS2_Pi.exit

18:                                               ; preds = %14
  %19 = add nsw i64 %indvars.iv.i22.i, -1
  %20 = getelementptr inbounds nuw i8, ptr %.sroa.09.1.i.i, i64 %19
  %21 = load i8, ptr %20, align 1, !tbaa !7
  %.not.i26.i = icmp eq i8 %21, 48
  br i1 %.not.i26.i, label %14, label %_ZN17double_conversion17TrimTrailingZerosENS_6VectorIKcEE.exit.i, !llvm.loop !25

_ZN17double_conversion17TrimTrailingZerosENS_6VectorIKcEE.exit.i: ; preds = %18
  %22 = sub nsw i32 %.sroa.3.1.i.i, %15
  %23 = add nsw i32 %22, %2
  %24 = icmp ugt i64 %indvars.iv.i22.i, 780
  br i1 %24, label %.preheader.i.preheader, label %_ZN17double_conversionL10TrimAndCutENS_6VectorIKcEEiPciPS2_Pi.exit

.preheader.i.preheader:                           ; preds = %_ZN17double_conversion17TrimTrailingZerosENS_6VectorIKcEE.exit.i
  call void @llvm.memcpy.p0.p0.i64(ptr noundef nonnull align 16 dereferenceable(779) %4, ptr noundef nonnull align 1 dereferenceable(779) %.sroa.09.1.i.i, i64 779, i1 false), !tbaa !7
  %25 = getelementptr inbounds nuw i8, ptr %4, i64 779
  store i8 49, ptr %25, align 1, !tbaa !7
  %26 = add nsw i32 %15, -780
  %27 = add nsw i32 %26, %23
  br label %_ZN17double_conversionL10TrimAndCutENS_6VectorIKcEEiPciPS2_Pi.exit

_ZN17double_conversionL10TrimAndCutENS_6VectorIKcEEiPciPS2_Pi.exit: ; preds = %_ZN17double_conversion17TrimTrailingZerosENS_6VectorIKcEE.exit.thread.i, %_ZN17double_conversion17TrimTrailingZerosENS_6VectorIKcEE.exit.i, %.preheader.i.preheader
  %.sroa.6.0 = phi i32 [ 780, %.preheader.i.preheader ], [ 0, %_ZN17double_conversion17TrimTrailingZerosENS_6VectorIKcEE.exit.thread.i ], [ %15, %_ZN17double_conversion17TrimTrailingZerosENS_6VectorIKcEE.exit.i ]
  %.sroa.0.0 = phi ptr [ %4, %.preheader.i.preheader ], [ %.sroa.09.1.i.i, %_ZN17double_conversion17TrimTrailingZerosENS_6VectorIKcEE.exit.thread.i ], [ %.sroa.09.1.i.i, %_ZN17double_conversion17TrimTrailingZerosENS_6VectorIKcEE.exit.i ]
  %.0 = phi i32 [ %27, %.preheader.i.preheader ], [ %17, %_ZN17double_conversion17TrimTrailingZerosENS_6VectorIKcEE.exit.thread.i ], [ %23, %_ZN17double_conversion17TrimTrailingZerosENS_6VectorIKcEE.exit.i ]
  %28 = call noundef float @_ZN17double_conversion13StrtofTrimmedENS_6VectorIKcEEi(ptr %.sroa.0.0, i32 %.sroa.6.0, i32 noundef %.0)
  call void @llvm.lifetime.end.p0(i64 780, ptr nonnull %4) #6
  ret float %28
}